target datalayout = "e-m:e-p270:32:32-p271:32:32-p272:64:64-i64:64-i128:128-f80:128-n8:16:32:64-S128"
target triple = "x86_64-pc-linux-gnu"

%struct.lf_state = type { ptr, i64, [32 x ptr] }

@stderr = external global ptr, align 8
@.str = private unnamed_addr constant [4 x i8] c"%s\0A\00", align 1
@.str.1 = private unnamed_addr constant [14 x i8] c"Out of memory\00", align 1
@.str.5 = private unnamed_addr constant [30 x i8] c"Bad f argument or I/O failure\00", align 1

; Function Attrs: nounwind uwtable
define internal ptr @CORD_from_file_lazy_inner(ptr noundef %0, i64 noundef %1) #0 {
  %3 = alloca ptr, align 8
  %4 = alloca i64, align 8
  %5 = alloca ptr, align 8
  %6 = alloca i32, align 4
  %7 = alloca [1 x i8], align 1
  store ptr %0, ptr %3, align 8, !tbaa !9
  store i64 %1, ptr %4, align 8, !tbaa !11
  call void @llvm.lifetime.start.p0(i64 8, ptr %5) #9
  %8 = call noalias ptr @GC_malloc(i64 noundef 272) #10
  store ptr %8, ptr %5, align 8, !tbaa !28
  call void @llvm.lifetime.start.p0(i64 4, ptr %6) #9
  %9 = load ptr, ptr %5, align 8, !tbaa !28
  %10 = icmp eq ptr null, %9
  br i1 %10, label %11, label %14

11:                                               ; preds = %2
  call void @CORD__call_oom_fn()
  %12 = load ptr, ptr @stderr, align 8, !tbaa !9
  %13 = call i32 (ptr, ptr, ...) @fprintf(ptr noundef %12, ptr noundef @.str, ptr noundef @.str.1) #9
  call void @abort() #11
  unreachable

14:                                               ; preds = %2
  %15 = load i64, ptr %4, align 8, !tbaa !11
  %16 = icmp ne i64 %15, 0
  br i1 %16, label %17, label %30

17:                                               ; preds = %14
  call void @llvm.lifetime.start.p0(i64 1, ptr %7) #9
  %18 = getelementptr inbounds [1 x i8], ptr %7, i64 0, i64 0
  %19 = load ptr, ptr %3, align 8, !tbaa !9
  %20 = call i64 @fread(ptr noundef %18, i64 noundef 1, i64 noundef 1, ptr noundef %19)
  %21 = icmp ugt i64 %20, 1
  br i1 %21, label %26, label %22

22:                                               ; preds = %17
  %23 = load ptr, ptr %3, align 8, !tbaa !9
  %24 = call i32 @fseek(ptr noundef %23, i64 noundef 0, i32 noundef 0)
  %25 = icmp ne i32 %24, 0
  br i1 %25, label %26, label %29

26:                                               ; preds = %22, %17
  %27 = load ptr, ptr @stderr, align 8, !tbaa !9
  %28 = call i32 (ptr, ptr, ...) @fprintf(ptr noundef %27, ptr noundef @.str, ptr noundef @.str.5) #9
  call void @abort() #11
  unreachable

29:                                               ; preds = %22
  call void @llvm.lifetime.end.p0(i64 1, ptr %7) #9
  br label %30

30:                                               ; preds = %29, %14
  %31 = load ptr, ptr %3, align 8, !tbaa !9
  %32 = load ptr, ptr %5, align 8, !tbaa !28
  %33 = getelementptr inbounds nuw %struct.lf_state, ptr %32, i32 0, i32 0
  store ptr %31, ptr %33, align 8, !tbaa !39
  store i32 0, ptr %6, align 4, !tbaa !13
  br label %34

34:                                               ; preds = %43, %30
  %35 = load i32, ptr %6, align 4, !tbaa !13
  %36 = icmp slt i32 %35, 32
  br i1 %36, label %37, label %46

37:                                               ; preds = %34
  %38 = load ptr, ptr %5, align 8, !tbaa !28
  %39 = getelementptr inbounds nuw %struct.lf_state, ptr %38, i32 0, i32 2
  %40 = load i32, ptr %6, align 4, !tbaa !13
  %41 = sext i32 %40 to i64
  %42 = getelementptr inbounds [32 x ptr], ptr %39, i64 0, i64 %41
  store volatile ptr null, ptr %42, align 8, !tbaa !28
  br label %43

43:                                               ; preds = %37
  %44 = load i32, ptr %6, align 4, !tbaa !13
  %45 = add nsw i32 %44, 1
  store i32 %45, ptr %6, align 4, !tbaa !13
  br label %34, !llvm.loop !41

46:                                               ; preds = %34
  %47 = load ptr, ptr %5, align 8, !tbaa !28
  %48 = getelementptr inbounds nuw %struct.lf_state, ptr %47, i32 0, i32 1
  store i64 0, ptr %48, align 8, !tbaa !42
  %49 = load ptr, ptr %5, align 8, !tbaa !28
  call void @GC_register_finalizer(ptr noundef %49, ptr noundef @CORD_lf_close_proc, ptr noundef null, ptr noundef null, ptr noundef null)
  %50 = load ptr, ptr %5, align 8, !tbaa !28
  %51 = load i64, ptr %4, align 8, !tbaa !11
  %52 = call ptr @CORD_from_fn(ptr noundef @CORD_lf_func, ptr noundef %50, i64 noundef %51)
  call void @llvm.lifetime.end.p0(i64 4, ptr %6) #9
  call void @llvm.lifetime.end.p0(i64 8, ptr %5) #9
  ret ptr %52
}