; Function Attrs: nounwind uwtable
define internal fastcc ptr @CORD_from_file_lazy_inner(ptr noundef %0, i64 noundef range(i64 0, -9223372036854775808) %1) unnamed_addr #0 {
  %3 = alloca [1 x i8], align 1
  %4 = tail call noalias dereferenceable_or_null(272) ptr @GC_malloc(i64 noundef 272) #17
  %5 = icmp eq ptr %4, null
  br i1 %5, label %6, label %9

6:                                                ; preds = %2
  tail call void @CORD__call_oom_fn() #16
  %7 = load ptr, ptr @stderr, align 8, !tbaa !3
  %8 = tail call i32 (ptr, ptr, ...) @fprintf(ptr noundef %7, ptr noundef nonnull @.str, ptr noundef nonnull @.str.1) #18
  tail call void @abort() #19
  unreachable

9:                                                ; preds = %2
  %.not = icmp eq i64 %1, 0
  br i1 %.not, label %19, label %10

10:                                               ; preds = %9
  call void @llvm.lifetime.start.p0(i64 1, ptr nonnull %3) #16
  %11 = call i64 @fread(ptr noundef nonnull %3, i64 noundef 1, i64 noundef 1, ptr noundef %0)
  %12 = icmp ugt i64 %11, 1
  br i1 %12, label %15, label %13

13:                                               ; preds = %10
  %14 = tail call i32 @fseek(ptr noundef %0, i64 noundef 0, i32 noundef 0)
  %.not14 = icmp eq i32 %14, 0
  br i1 %.not14, label %18, label %15

15:                                               ; preds = %13, %10
  %16 = load ptr, ptr @stderr, align 8, !tbaa !3
  %17 = tail call i32 (ptr, ptr, ...) @fprintf(ptr noundef %16, ptr noundef nonnull @.str, ptr noundef nonnull @.str.5) #18
  tail call void @abort() #19
  unreachable

18:                                               ; preds = %13
  call void @llvm.lifetime.end.p0(i64 1, ptr nonnull %3) #16
  br label %19

19:                                               ; preds = %18, %9
  store ptr %0, ptr %4, align 8, !tbaa !34
  %20 = getelementptr inbounds nuw i8, ptr %4, i64 16
  br label %21

21:                                               ; preds = %19, %21
  %indvars.iv = phi i64 [ 0, %19 ], [ %indvars.iv.next, %21 ]
  %22 = getelementptr inbounds nuw [32 x ptr], ptr %20, i64 0, i64 %indvars.iv
  store volatile ptr null, ptr %22, align 8, !tbaa !36
  %indvars.iv.next = add nuw nsw i64 %indvars.iv, 1
  %exitcond.not = icmp eq i64 %indvars.iv.next, 32
  br i1 %exitcond.not, label %23, label %21, !llvm.loop !37

23:                                               ; preds = %21
  %24 = getelementptr inbounds nuw i8, ptr %4, i64 8
  store i64 0, ptr %24, align 8, !tbaa !38
  tail call void @GC_register_finalizer(ptr noundef nonnull %4, ptr noundef nonnull @CORD_lf_close_proc, ptr noundef null, ptr noundef null, ptr noundef null) #16
  %25 = tail call ptr @CORD_from_fn(ptr noundef nonnull @CORD_lf_func, ptr noundef nonnull %4, i64 noundef %1) #16
  ret ptr %25
}